target datalayout = "e-m:e-p270:32:32-p271:32:32-p272:64:64-i64:64-i128:128-f80:128-n8:16:32:64-S128"
target triple = "x86_64-pc-linux-gnu"

%struct.PerfMapState = type { ptr, ptr }

@.str.9 = private unnamed_addr constant [18 x i8] c"/tmp/perf-%jd.map\00", align 1
@.str.10 = private unnamed_addr constant [2 x i8] c"a\00", align 1
@perf_map_state = internal global %struct.PerfMapState zeroinitializer, align 8

; Function Attrs: nounwind uwtable
define dso_local i32 @PyUnstable_PerfMapState_Init() #0 {
  %1 = alloca i32, align 4
  %2 = alloca [100 x i8], align 16
  %3 = alloca i32, align 4
  %4 = alloca i32, align 4
  %5 = alloca i32, align 4
  %6 = alloca i32, align 4
  call void @llvm.lifetime.start.p0(i64 100, ptr %2) #12
  call void @llvm.lifetime.start.p0(i64 4, ptr %3) #12
  %7 = call i32 @getpid() #12
  store i32 %7, ptr %3, align 4, !tbaa !97
  call void @llvm.lifetime.start.p0(i64 4, ptr %4) #12
  store i32 132161, ptr %4, align 4, !tbaa !97
  %8 = load i32, ptr %4, align 4, !tbaa !97
  %9 = or i32 %8, 524288
  store i32 %9, ptr %4, align 4, !tbaa !97
  %10 = getelementptr inbounds [100 x i8], ptr %2, i64 0, i64 0
  %11 = load i32, ptr %3, align 4, !tbaa !97
  %12 = sext i32 %11 to i64
  %13 = call i32 (ptr, i64, ptr, ...) @snprintf(ptr noundef %10, i64 noundef 99, ptr noundef @.str.9, i64 noundef %12) #12
  call void @llvm.lifetime.start.p0(i64 4, ptr %5) #12
  %14 = getelementptr inbounds [100 x i8], ptr %2, i64 0, i64 0
  %15 = load i32, ptr %4, align 4, !tbaa !97
  %16 = call i32 (ptr, i32, ...) @open64(ptr noundef %14, i32 noundef %15, i32 noundef 384)
  store i32 %16, ptr %5, align 4, !tbaa !97
  %17 = load i32, ptr %5, align 4, !tbaa !97
  %18 = icmp eq i32 %17, -1
  br i1 %18, label %19, label %20

19:                                               ; preds = %0
  store i32 -1, ptr %1, align 4
  store i32 1, ptr %6, align 4
  br label %37

20:                                               ; preds = %0
  %21 = load i32, ptr %5, align 4, !tbaa !97
  %22 = call noalias ptr @fdopen(i32 noundef %21, ptr noundef @.str.10) #12
  store ptr %22, ptr @perf_map_state, align 8, !tbaa !217
  %23 = load ptr, ptr @perf_map_state, align 8, !tbaa !217
  %24 = icmp eq ptr %23, null
  br i1 %24, label %25, label %28

25:                                               ; preds = %20
  %26 = load i32, ptr %5, align 4, !tbaa !97
  %27 = call i32 @close(i32 noundef %26)
  store i32 -1, ptr %1, align 4
  store i32 1, ptr %6, align 4
  br label %37

28:                                               ; preds = %20
  br label %29

29:                                               ; preds = %28
  %30 = call ptr @PyThread_allocate_lock()
  store ptr %30, ptr getelementptr inbounds nuw (%struct.PerfMapState, ptr @perf_map_state, i32 0, i32 1), align 8, !tbaa !219
  %31 = load ptr, ptr getelementptr inbounds nuw (%struct.PerfMapState, ptr @perf_map_state, i32 0, i32 1), align 8, !tbaa !219
  %32 = icmp eq ptr %31, null
  br i1 %32, label %33, label %36

33:                                               ; preds = %29
  %34 = load ptr, ptr @perf_map_state, align 8, !tbaa !217
  %35 = call i32 @fclose(ptr noundef %34)
  store i32 -2, ptr %1, align 4
  store i32 1, ptr %6, align 4
  br label %37

36:                                               ; preds = %29
  store i32 0, ptr %1, align 4
  store i32 1, ptr %6, align 4
  br label %37

37:                                               ; preds = %36, %33, %25, %19
  call void @llvm.lifetime.end.p0(i64 4, ptr %5) #12
  call void @llvm.lifetime.end.p0(i64 4, ptr %4) #12
  call void @llvm.lifetime.end.p0(i64 4, ptr %3) #12
  call void @llvm.lifetime.end.p0(i64 100, ptr %2) #12
  %38 = load i32, ptr %1, align 4
  ret i32 %38
}