; Function Attrs: nounwind uwtable
define dso_local range(i32 -2, 1) i32 @PyUnstable_PerfMapState_Init() local_unnamed_addr #0 {
  %1 = alloca [100 x i8], align 16
  call void @llvm.lifetime.start.p0(i64 100, ptr nonnull %1) #15
  %2 = tail call i32 @getpid() #15
  %3 = sext i32 %2 to i64
  %4 = call i32 (ptr, i64, ptr, ...) @snprintf(ptr noundef nonnull dereferenceable(1) %1, i64 noundef 99, ptr noundef nonnull @.str.9, i64 noundef %3) #15
  %5 = call i32 (ptr, i32, ...) @open64(ptr noundef nonnull %1, i32 noundef 656449, i32 noundef 384) #15
  %6 = icmp eq i32 %5, -1
  br i1 %6, label %18, label %7

7:                                                ; preds = %0
  %8 = tail call noalias ptr @fdopen(i32 noundef %5, ptr noundef nonnull @.str.10) #15
  store ptr %8, ptr @perf_map_state.0, align 8, !tbaa !203
  %9 = icmp eq ptr %8, null
  br i1 %9, label %10, label %12

10:                                               ; preds = %7
  %11 = tail call i32 @close(i32 noundef %5) #15
  br label %18

12:                                               ; preds = %7
  %13 = tail call ptr @PyThread_allocate_lock() #15
  store ptr %13, ptr @perf_map_state.1, align 8, !tbaa !205
  %14 = icmp eq ptr %13, null
  br i1 %14, label %15, label %18

15:                                               ; preds = %12
  %16 = load ptr, ptr @perf_map_state.0, align 8, !tbaa !203
  %17 = tail call i32 @fclose(ptr noundef %16)
  br label %18

18:                                               ; preds = %12, %0, %15, %10
  %.0 = phi i32 [ -1, %10 ], [ -2, %15 ], [ -1, %0 ], [ 0, %12 ]
  call void @llvm.lifetime.end.p0(i64 100, ptr nonnull %1) #15
  ret i32 %.0
}